target datalayout = "e-m:e-p270:32:32-p271:32:32-p272:64:64-i64:64-i128:128-f80:128-n8:16:32:64-S128"
target triple = "x86_64-pc-linux-gnu"

%struct._object = type { %union.anon, ptr }
%union.anon = type { i64 }
%struct._odictobject = type { %struct.PyDictObject, ptr, ptr, ptr, i64, ptr, i64, ptr, ptr }
%struct.PyDictObject = type { %struct._object, i64, i64, ptr, ptr }

; Function Attrs: inlinehint nounwind uwtable
define internal i64 @PyDict_GET_SIZE(ptr noundef %0) #3 {
  %2 = alloca ptr, align 8
  %3 = alloca ptr, align 8
  store ptr %0, ptr %2, align 8, !tbaa !42
  call void @llvm.lifetime.start.p0(i64 8, ptr %3) #7
  %4 = load ptr, ptr %2, align 8, !tbaa !42
  store ptr %4, ptr %3, align 8, !tbaa !44
  %5 = load ptr, ptr %3, align 8, !tbaa !44
  %6 = getelementptr inbounds nuw %struct.PyDictObject, ptr %5, i32 0, i32 1
  %7 = load i64, ptr %6, align 8, !tbaa !75
  call void @llvm.lifetime.end.p0(i64 8, ptr %3) #7
  ret i64 %7
}

; Function Attrs: nounwind uwtable
define internal ptr @odict_sizeof(ptr noundef %0, ptr noundef %1) #0 {
  %3 = alloca ptr, align 8
  %4 = alloca ptr, align 8
  %5 = alloca i64, align 8
  store ptr %0, ptr %3, align 8, !tbaa !4
  store ptr %1, ptr %4, align 8, !tbaa !42
  call void @llvm.lifetime.start.p0(i64 8, ptr %5) #7
  %6 = load ptr, ptr %3, align 8, !tbaa !4
  %7 = call i64 @_PyDict_SizeOf(ptr noundef %6)
  store i64 %7, ptr %5, align 8, !tbaa !55
  %8 = load ptr, ptr %3, align 8, !tbaa !4
  %9 = getelementptr inbounds nuw %struct._odictobject, ptr %8, i32 0, i32 4
  %10 = load i64, ptr %9, align 8, !tbaa !69
  %11 = mul i64 8, %10
  %12 = load i64, ptr %5, align 8, !tbaa !55
  %13 = add i64 %12, %11
  store i64 %13, ptr %5, align 8, !tbaa !55
  %14 = load ptr, ptr %3, align 8, !tbaa !4
  %15 = getelementptr inbounds nuw %struct._odictobject, ptr %14, i32 0, i32 1
  %16 = load ptr, ptr %15, align 8, !tbaa !45
  %17 = icmp eq ptr %16, null
  br i1 %17, label %24, label %18

18:                                               ; preds = %2
  %19 = load ptr, ptr %3, align 8, !tbaa !4
  %20 = call i64 @PyDict_GET_SIZE(ptr noundef %19)
  %21 = mul i64 32, %20
  %22 = load i64, ptr %5, align 8, !tbaa !55
  %23 = add i64 %22, %21
  store i64 %23, ptr %5, align 8, !tbaa !55
  br label %24

24:                                               ; preds = %18, %2
  %25 = load i64, ptr %5, align 8, !tbaa !55
  %26 = call ptr @PyLong_FromSsize_t(i64 noundef %25)
  call void @llvm.lifetime.end.p0(i64 8, ptr %5) #7
  ret ptr %26
}