; Function Attrs: nounwind uwtable
define internal ptr @odict_sizeof(ptr noundef %0, ptr readnone captures(none) %1) #0 {
  %3 = tail call i64 @_PyDict_SizeOf(ptr noundef %0) #8
  %4 = getelementptr inbounds nuw i8, ptr %0, i64 72
  %5 = load i64, ptr %4, align 8, !tbaa !147
  %6 = shl i64 %5, 3
  %7 = add i64 %6, %3
  %8 = getelementptr inbounds nuw i8, ptr %0, i64 48
  %9 = load ptr, ptr %8, align 8, !tbaa !41
  %10 = icmp eq ptr %9, null
  br i1 %10, label %15, label %11

11:                                               ; preds = %2
  %12 = getelementptr i8, ptr %0, i64 16
  %.val = load i64, ptr %12, align 8, !tbaa !49
  %13 = shl i64 %.val, 5
  %14 = add i64 %13, %7
  br label %15

15:                                               ; preds = %11, %2
  %.0 = phi i64 [ %7, %2 ], [ %14, %11 ]
  %16 = tail call ptr @PyLong_FromSsize_t(i64 noundef %.0) #8
  ret ptr %16
}